target datalayout = "e-m:e-p270:32:32-p271:32:32-p272:64:64-i64:64-i128:128-f80:128-n8:16:32:64-S128"
target triple = "x86_64-pc-linux-gnu"

%struct.data_blob = type { ptr, i32 }

; Function Attrs: null_pointer_is_valid sspstrong uwtable
define internal i32 @vvalue_tvb_blob(ptr noundef %0, i32 noundef %1, ptr noundef %2) #0 {
  %4 = alloca ptr, align 8
  %5 = alloca i32, align 4
  %6 = alloca ptr, align 8
  %7 = alloca ptr, align 8
  %8 = alloca i32, align 4
  store ptr %0, ptr %4, align 8
  store i32 %1, ptr %5, align 4
  store ptr %2, ptr %6, align 8
  call void @llvm.lifetime.start.p0(i64 8, ptr %7) #11
  %9 = load ptr, ptr %6, align 8
  store ptr %9, ptr %7, align 8
  call void @llvm.lifetime.start.p0(i64 4, ptr %8) #11
  %10 = load ptr, ptr %4, align 8
  %11 = load i32, ptr %5, align 4
  %12 = call i32 @tvb_get_letohl(ptr noundef %10, i32 noundef %11)
  store i32 %12, ptr %8, align 4
  %13 = load i32, ptr %8, align 4
  %14 = load ptr, ptr %7, align 8
  %15 = getelementptr inbounds nuw %struct.data_blob, ptr %14, i32 0, i32 1
  store i32 %13, ptr %15, align 8
  %16 = call ptr @wmem_packet_scope()
  %17 = load ptr, ptr %4, align 8
  %18 = load i32, ptr %5, align 4
  %19 = add i32 %18, 4
  %20 = load i32, ptr %8, align 4
  %21 = zext i32 %20 to i64
  %22 = call ptr @tvb_memdup(ptr noundef %16, ptr noundef %17, i32 noundef %19, i64 noundef %21)
  %23 = load ptr, ptr %7, align 8
  %24 = getelementptr inbounds nuw %struct.data_blob, ptr %23, i32 0, i32 0
  store ptr %22, ptr %24, align 8
  %25 = load i32, ptr %8, align 4
  %26 = add i32 4, %25
  call void @llvm.lifetime.end.p0(i64 4, ptr %8) #11
  call void @llvm.lifetime.end.p0(i64 8, ptr %7) #11
  ret i32 %26
}