; Function Attrs: null_pointer_is_valid sspstrong uwtable
define internal i32 @vvalue_tvb_blob(ptr noundef %0, i32 noundef %1, ptr noundef writeonly captures(none) initializes((0, 12)) %2) #0 {
  %4 = tail call i32 @tvb_get_letohl(ptr noundef %0, i32 noundef %1)
  %5 = getelementptr inbounds nuw i8, ptr %2, i64 8
  store i32 %4, ptr %5, align 8
  %6 = tail call ptr @wmem_packet_scope()
  %7 = add i32 %1, 4
  %8 = zext i32 %4 to i64
  %9 = tail call ptr @tvb_memdup(ptr noundef %6, ptr noundef %0, i32 noundef %7, i64 noundef %8)
  store ptr %9, ptr %2, align 8
  %10 = add i32 %4, 4
  ret i32 %10
}